
_waterLevel:

;seance2.c,34 :: 		void waterLevel(){
;seance2.c,35 :: 		SetHigh(redLED);
	BSF        RC7_bit+0, BitPos(RC7_bit+0)
;seance2.c,36 :: 		SetHigh(buzzer);
	BSF        RB3_bit+0, BitPos(RB3_bit+0)
;seance2.c,37 :: 		Lcd_Cmd(_LCD_CLEAR);
	MOVLW      1
	MOVWF      FARG_Lcd_Cmd_out_char+0
	CALL       _Lcd_Cmd+0
;seance2.c,38 :: 		Lcd_Out(1, 1, "Niveau d'eau bas");
	MOVLW      1
	MOVWF      FARG_Lcd_Out_row+0
	MOVLW      1
	MOVWF      FARG_Lcd_Out_column+0
	MOVLW      ?lstr1_seance2+0
	MOVWF      FARG_Lcd_Out_text+0
	CALL       _Lcd_Out+0
;seance2.c,39 :: 		Delay_ms(6000);
	MOVLW      61
	MOVWF      R11+0
	MOVLW      225
	MOVWF      R12+0
	MOVLW      63
	MOVWF      R13+0
L_waterLevel0:
	DECFSZ     R13+0, 1
	GOTO       L_waterLevel0
	DECFSZ     R12+0, 1
	GOTO       L_waterLevel0
	DECFSZ     R11+0, 1
	GOTO       L_waterLevel0
	NOP
	NOP
;seance2.c,40 :: 		}
L_end_waterLevel:
	RETURN
; end of _waterLevel

_lumiere:

;seance2.c,41 :: 		void lumiere(){
;seance2.c,42 :: 		SetHigh(lamp1);
	BSF        RC3_bit+0, BitPos(RC3_bit+0)
;seance2.c,43 :: 		SetHigh(lamp2);
	BSF        RC4_bit+0, BitPos(RC4_bit+0)
;seance2.c,44 :: 		Lcd_Cmd(_LCD_CLEAR);
	MOVLW      1
	MOVWF      FARG_Lcd_Cmd_out_char+0
	CALL       _Lcd_Cmd+0
;seance2.c,45 :: 		Lcd_Out(1, 1, "Mode nuit");
	MOVLW      1
	MOVWF      FARG_Lcd_Out_row+0
	MOVLW      1
	MOVWF      FARG_Lcd_Out_column+0
	MOVLW      ?lstr2_seance2+0
	MOVWF      FARG_Lcd_Out_text+0
	CALL       _Lcd_Out+0
;seance2.c,46 :: 		Delay_ms(5000);
	MOVLW      51
	MOVWF      R11+0
	MOVLW      187
	MOVWF      R12+0
	MOVLW      223
	MOVWF      R13+0
L_lumiere1:
	DECFSZ     R13+0, 1
	GOTO       L_lumiere1
	DECFSZ     R12+0, 1
	GOTO       L_lumiere1
	DECFSZ     R11+0, 1
	GOTO       L_lumiere1
	NOP
	NOP
;seance2.c,47 :: 		}
L_end_lumiere:
	RETURN
; end of _lumiere

_food:

;seance2.c,48 :: 		void food(){
;seance2.c,50 :: 		Lcd_Cmd(_LCD_CLEAR);
	MOVLW      1
	MOVWF      FARG_Lcd_Cmd_out_char+0
	CALL       _Lcd_Cmd+0
;seance2.c,51 :: 		Lcd_Out(1, 1, "Distribution");
	MOVLW      1
	MOVWF      FARG_Lcd_Out_row+0
	MOVLW      1
	MOVWF      FARG_Lcd_Out_column+0
	MOVLW      ?lstr3_seance2+0
	MOVWF      FARG_Lcd_Out_text+0
	CALL       _Lcd_Out+0
;seance2.c,52 :: 		Lcd_Out(2, 1, "de nourriture");
	MOVLW      2
	MOVWF      FARG_Lcd_Out_row+0
	MOVLW      1
	MOVWF      FARG_Lcd_Out_column+0
	MOVLW      ?lstr4_seance2+0
	MOVWF      FARG_Lcd_Out_text+0
	CALL       _Lcd_Out+0
;seance2.c,53 :: 		for(i=0; i<3; i++){
	CLRF       food_i_L0+0
	CLRF       food_i_L0+1
L_food2:
	MOVLW      128
	XORWF      food_i_L0+1, 0
	MOVWF      R0+0
	MOVLW      128
	SUBWF      R0+0, 0
	BTFSS      STATUS+0, 2
	GOTO       L__food29
	MOVLW      3
	SUBWF      food_i_L0+0, 0
L__food29:
	BTFSC      STATUS+0, 0
	GOTO       L_food3
;seance2.c,54 :: 		SetHigh(redLED);
	BSF        RC7_bit+0, BitPos(RC7_bit+0)
;seance2.c,55 :: 		Delay_ms(500);
	MOVLW      6
	MOVWF      R11+0
	MOVLW      19
	MOVWF      R12+0
	MOVLW      173
	MOVWF      R13+0
L_food5:
	DECFSZ     R13+0, 1
	GOTO       L_food5
	DECFSZ     R12+0, 1
	GOTO       L_food5
	DECFSZ     R11+0, 1
	GOTO       L_food5
	NOP
	NOP
;seance2.c,56 :: 		SetLow(redLED);
	BCF        RC7_bit+0, BitPos(RC7_bit+0)
;seance2.c,57 :: 		Delay_ms(500);
	MOVLW      6
	MOVWF      R11+0
	MOVLW      19
	MOVWF      R12+0
	MOVLW      173
	MOVWF      R13+0
L_food6:
	DECFSZ     R13+0, 1
	GOTO       L_food6
	DECFSZ     R12+0, 1
	GOTO       L_food6
	DECFSZ     R11+0, 1
	GOTO       L_food6
	NOP
	NOP
;seance2.c,53 :: 		for(i=0; i<3; i++){
	INCF       food_i_L0+0, 1
	BTFSC      STATUS+0, 2
	INCF       food_i_L0+1, 1
;seance2.c,58 :: 		}
	GOTO       L_food2
L_food3:
;seance2.c,59 :: 		SetHigh(foodMotor);
	BSF        RB1_bit+0, BitPos(RB1_bit+0)
;seance2.c,60 :: 		Delay_ms(2000);
	MOVLW      21
	MOVWF      R11+0
	MOVLW      75
	MOVWF      R12+0
	MOVLW      190
	MOVWF      R13+0
L_food7:
	DECFSZ     R13+0, 1
	GOTO       L_food7
	DECFSZ     R12+0, 1
	GOTO       L_food7
	DECFSZ     R11+0, 1
	GOTO       L_food7
	NOP
;seance2.c,61 :: 		}
L_end_food:
	RETURN
; end of _food

_main:

;seance2.c,64 :: 		void main(){
;seance2.c,68 :: 		TRISB = 0b01100001;
	MOVLW      97
	MOVWF      TRISB+0
;seance2.c,69 :: 		TRISC = 0;
	CLRF       TRISC+0
;seance2.c,71 :: 		Lcd_Init();
	CALL       _Lcd_Init+0
;seance2.c,72 :: 		Lcd_Cmd(_LCD_CLEAR);  // Clear display
	MOVLW      1
	MOVWF      FARG_Lcd_Cmd_out_char+0
	CALL       _Lcd_Cmd+0
;seance2.c,73 :: 		Lcd_Cmd(_LCD_CURSOR_OFF);  // Turn off cursor
	MOVLW      12
	MOVWF      FARG_Lcd_Cmd_out_char+0
	CALL       _Lcd_Cmd+0
;seance2.c,74 :: 		Lcd_Out(1, 1, "etatNormal");
	MOVLW      1
	MOVWF      FARG_Lcd_Out_row+0
	MOVLW      1
	MOVWF      FARG_Lcd_Out_column+0
	MOVLW      ?lstr5_seance2+0
	MOVWF      FARG_Lcd_Out_text+0
	CALL       _Lcd_Out+0
;seance2.c,75 :: 		Lcd_Out(2, 1, "modeJour");
	MOVLW      2
	MOVWF      FARG_Lcd_Out_row+0
	MOVLW      1
	MOVWF      FARG_Lcd_Out_column+0
	MOVLW      ?lstr6_seance2+0
	MOVWF      FARG_Lcd_Out_text+0
	CALL       _Lcd_Out+0
;seance2.c,77 :: 		ADC_Init();
	CALL       _ADC_Init+0
;seance2.c,78 :: 		INTCON.GIE = 1;
	BSF        INTCON+0, 7
;seance2.c,79 :: 		INTCON.INTE = 1;
	BSF        INTCON+0, 4
;seance2.c,80 :: 		OPTION_REG.INTEDG = 0;
	BCF        OPTION_REG+0, 6
;seance2.c,81 :: 		INTCON.RBIE = 1;
	BSF        INTCON+0, 3
;seance2.c,82 :: 		OPTION_REG.T0CS=0;
	BCF        OPTION_REG+0, 5
;seance2.c,83 :: 		OPTION_REG.PSA=0;
	BCF        OPTION_REG+0, 3
;seance2.c,84 :: 		OPTION_REG.PS0=1;
	BSF        OPTION_REG+0, 0
;seance2.c,85 :: 		OPTION_REG.PS1=1;
	BSF        OPTION_REG+0, 1
;seance2.c,86 :: 		OPTION_REG.PS2=1;
	BSF        OPTION_REG+0, 2
;seance2.c,87 :: 		TMR0=0;
	CLRF       TMR0+0
;seance2.c,89 :: 		SetLow(buzzer);
	BCF        RB3_bit+0, BitPos(RB3_bit+0)
;seance2.c,90 :: 		SetLow(foodMotor);
	BCF        RB1_bit+0, BitPos(RB1_bit+0)
;seance2.c,91 :: 		SetLow(lamp1);
	BCF        RC3_bit+0, BitPos(RC3_bit+0)
;seance2.c,92 :: 		SetLow(lamp2);
	BCF        RC4_bit+0, BitPos(RC4_bit+0)
;seance2.c,93 :: 		SetLow(heater);
	BCF        RB2_bit+0, BitPos(RB2_bit+0)
;seance2.c,94 :: 		SetLow(redLED);
	BCF        RC7_bit+0, BitPos(RC7_bit+0)
;seance2.c,95 :: 		SetLow(blueLED);
	BCF        RC5_bit+0, BitPos(RC5_bit+0)
;seance2.c,97 :: 		SetHigh(greenLED);
	BSF        RC6_bit+0, BitPos(RC6_bit+0)
;seance2.c,98 :: 		while (1) {
L_main8:
;seance2.c,100 :: 		tempC = ADC_Read(0)*0.496;
	CLRF       FARG_ADC_Read_channel+0
	CALL       _ADC_Read+0
	CALL       _word2double+0
	MOVLW      182
	MOVWF      R4+0
	MOVLW      243
	MOVWF      R4+1
	MOVLW      125
	MOVWF      R4+2
	MOVLW      125
	MOVWF      R4+3
	CALL       _Mul_32x32_FP+0
	CALL       _double2int+0
	MOVF       R0+0, 0
	MOVWF      main_tempC_L0+0
	MOVF       R0+1, 0
	MOVWF      main_tempC_L0+1
;seance2.c,102 :: 		quality = ADC_Read(1)*0.496;
	MOVLW      1
	MOVWF      FARG_ADC_Read_channel+0
	CALL       _ADC_Read+0
	CALL       _word2double+0
	MOVLW      182
	MOVWF      R4+0
	MOVLW      243
	MOVWF      R4+1
	MOVLW      125
	MOVWF      R4+2
	MOVLW      125
	MOVWF      R4+3
	CALL       _Mul_32x32_FP+0
	CALL       _double2int+0
	MOVF       R0+0, 0
	MOVWF      main_quality_L0+0
	MOVF       R0+1, 0
	MOVWF      main_quality_L0+1
;seance2.c,104 :: 		if(m==1){
	MOVLW      0
	XORWF      _m+1, 0
	BTFSS      STATUS+0, 2
	GOTO       L__main31
	MOVLW      1
	XORWF      _m+0, 0
L__main31:
	BTFSS      STATUS+0, 2
	GOTO       L_main10
;seance2.c,105 :: 		waterLevel();
	CALL       _waterLevel+0
;seance2.c,106 :: 		ii++;
	INCF       _ii+0, 1
	BTFSC      STATUS+0, 2
	INCF       _ii+1, 1
;seance2.c,107 :: 		EEPROM_Write(0x02,ii);
	MOVLW      2
	MOVWF      FARG_EEPROM_Write_Address+0
	MOVF       _ii+0, 0
	MOVWF      FARG_EEPROM_Write_data_+0
	CALL       _EEPROM_Write+0
;seance2.c,108 :: 		m=0;
	CLRF       _m+0
	CLRF       _m+1
;seance2.c,109 :: 		}
L_main10:
;seance2.c,110 :: 		if(m==2){
	MOVLW      0
	XORWF      _m+1, 0
	BTFSS      STATUS+0, 2
	GOTO       L__main32
	MOVLW      2
	XORWF      _m+0, 0
L__main32:
	BTFSS      STATUS+0, 2
	GOTO       L_main11
;seance2.c,111 :: 		lumiere();
	CALL       _lumiere+0
;seance2.c,112 :: 		m=0;
	CLRF       _m+0
	CLRF       _m+1
;seance2.c,113 :: 		}
L_main11:
;seance2.c,114 :: 		if(m==3){
	MOVLW      0
	XORWF      _m+1, 0
	BTFSS      STATUS+0, 2
	GOTO       L__main33
	MOVLW      3
	XORWF      _m+0, 0
L__main33:
	BTFSS      STATUS+0, 2
	GOTO       L_main12
;seance2.c,115 :: 		food();
	CALL       _food+0
;seance2.c,116 :: 		m=0;
	CLRF       _m+0
	CLRF       _m+1
;seance2.c,117 :: 		}
L_main12:
;seance2.c,118 :: 		if (tempC < CRITICAL_TEMP) {
	MOVLW      128
	XORWF      main_tempC_L0+1, 0
	MOVWF      R0+0
	MOVLW      128
	SUBWF      R0+0, 0
	BTFSS      STATUS+0, 2
	GOTO       L__main34
	MOVLW      20
	SUBWF      main_tempC_L0+0, 0
L__main34:
	BTFSC      STATUS+0, 0
	GOTO       L_main13
;seance2.c,119 :: 		SetHigh(redLED);
	BSF        RC7_bit+0, BitPos(RC7_bit+0)
;seance2.c,120 :: 		SetHigh(buzzer);
	BSF        RB3_bit+0, BitPos(RB3_bit+0)
;seance2.c,121 :: 		Lcd_Cmd(_LCD_CLEAR);
	MOVLW      1
	MOVWF      FARG_Lcd_Cmd_out_char+0
	CALL       _Lcd_Cmd+0
;seance2.c,122 :: 		Lcd_Out(1, 1, "Temp Critical!");
	MOVLW      1
	MOVWF      FARG_Lcd_Out_row+0
	MOVLW      1
	MOVWF      FARG_Lcd_Out_column+0
	MOVLW      ?lstr7_seance2+0
	MOVWF      FARG_Lcd_Out_text+0
	CALL       _Lcd_Out+0
;seance2.c,123 :: 		ii++;
	INCF       _ii+0, 1
	BTFSC      STATUS+0, 2
	INCF       _ii+1, 1
;seance2.c,124 :: 		EEPROM_Write(0x02,ii);
	MOVLW      2
	MOVWF      FARG_EEPROM_Write_Address+0
	MOVF       _ii+0, 0
	MOVWF      FARG_EEPROM_Write_data_+0
	CALL       _EEPROM_Write+0
;seance2.c,125 :: 		Delay_ms(3000);
	MOVLW      31
	MOVWF      R11+0
	MOVLW      113
	MOVWF      R12+0
	MOVLW      30
	MOVWF      R13+0
L_main14:
	DECFSZ     R13+0, 1
	GOTO       L_main14
	DECFSZ     R12+0, 1
	GOTO       L_main14
	DECFSZ     R11+0, 1
	GOTO       L_main14
	NOP
;seance2.c,127 :: 		}
	GOTO       L_main15
L_main13:
;seance2.c,128 :: 		else if (quality < QUALITY_THRESHOLD) {
	MOVLW      128
	XORWF      main_quality_L0+1, 0
	MOVWF      R0+0
	MOVLW      128
	SUBWF      R0+0, 0
	BTFSS      STATUS+0, 2
	GOTO       L__main35
	MOVLW      70
	SUBWF      main_quality_L0+0, 0
L__main35:
	BTFSC      STATUS+0, 0
	GOTO       L_main16
;seance2.c,129 :: 		SetHigh(blueLED);
	BSF        RC5_bit+0, BitPos(RC5_bit+0)
;seance2.c,130 :: 		Lcd_Cmd(_LCD_CLEAR);
	MOVLW      1
	MOVWF      FARG_Lcd_Cmd_out_char+0
	CALL       _Lcd_Cmd+0
;seance2.c,131 :: 		Lcd_Out(2, 1, "quality low");
	MOVLW      2
	MOVWF      FARG_Lcd_Out_row+0
	MOVLW      1
	MOVWF      FARG_Lcd_Out_column+0
	MOVLW      ?lstr8_seance2+0
	MOVWF      FARG_Lcd_Out_text+0
	CALL       _Lcd_Out+0
;seance2.c,132 :: 		ii++;
	INCF       _ii+0, 1
	BTFSC      STATUS+0, 2
	INCF       _ii+1, 1
;seance2.c,133 :: 		EEPROM_Write(0x02,ii);
	MOVLW      2
	MOVWF      FARG_EEPROM_Write_Address+0
	MOVF       _ii+0, 0
	MOVWF      FARG_EEPROM_Write_data_+0
	CALL       _EEPROM_Write+0
;seance2.c,134 :: 		Delay_ms(4000);
	MOVLW      41
	MOVWF      R11+0
	MOVLW      150
	MOVWF      R12+0
	MOVLW      127
	MOVWF      R13+0
L_main17:
	DECFSZ     R13+0, 1
	GOTO       L_main17
	DECFSZ     R12+0, 1
	GOTO       L_main17
	DECFSZ     R11+0, 1
	GOTO       L_main17
;seance2.c,136 :: 		}
	GOTO       L_main18
L_main16:
;seance2.c,138 :: 		SetLow(buzzer);
	BCF        RB3_bit+0, BitPos(RB3_bit+0)
;seance2.c,139 :: 		SetLow(foodMotor);
	BCF        RB1_bit+0, BitPos(RB1_bit+0)
;seance2.c,140 :: 		SetLow(lamp1);
	BCF        RC3_bit+0, BitPos(RC3_bit+0)
;seance2.c,141 :: 		SetLow(lamp2);
	BCF        RC4_bit+0, BitPos(RC4_bit+0)
;seance2.c,142 :: 		SetLow(heater);
	BCF        RB2_bit+0, BitPos(RB2_bit+0)
;seance2.c,143 :: 		SetLow(redLED);
	BCF        RC7_bit+0, BitPos(RC7_bit+0)
;seance2.c,144 :: 		SetLow(blueLED);
	BCF        RC5_bit+0, BitPos(RC5_bit+0)
;seance2.c,145 :: 		SetHigh(greenLED);
	BSF        RC6_bit+0, BitPos(RC6_bit+0)
;seance2.c,146 :: 		Lcd_Cmd(_LCD_CLEAR);
	MOVLW      1
	MOVWF      FARG_Lcd_Cmd_out_char+0
	CALL       _Lcd_Cmd+0
;seance2.c,147 :: 		Lcd_Out(1, 1, "etatNormal");
	MOVLW      1
	MOVWF      FARG_Lcd_Out_row+0
	MOVLW      1
	MOVWF      FARG_Lcd_Out_column+0
	MOVLW      ?lstr9_seance2+0
	MOVWF      FARG_Lcd_Out_text+0
	CALL       _Lcd_Out+0
;seance2.c,148 :: 		Lcd_Out(2, 1, "modeJour");
	MOVLW      2
	MOVWF      FARG_Lcd_Out_row+0
	MOVLW      1
	MOVWF      FARG_Lcd_Out_column+0
	MOVLW      ?lstr10_seance2+0
	MOVWF      FARG_Lcd_Out_text+0
	CALL       _Lcd_Out+0
;seance2.c,149 :: 		}
L_main18:
L_main15:
;seance2.c,150 :: 		if(buttonConsult){
	BTFSS      RA2_bit+0, BitPos(RA2_bit+0)
	GOTO       L_main19
;seance2.c,151 :: 		read=EEPROM_Read(0x02);
	MOVLW      2
	MOVWF      FARG_EEPROM_Read_Address+0
	CALL       _EEPROM_Read+0
	MOVF       R0+0, 0
	MOVWF      _read+0
	CLRF       _read+1
;seance2.c,152 :: 		IntToStr(read,mm);
	MOVF       _read+0, 0
	MOVWF      FARG_IntToStr_input+0
	MOVF       _read+1, 0
	MOVWF      FARG_IntToStr_input+1
	MOVF       _mm+0, 0
	MOVWF      FARG_IntToStr_output+0
	CALL       _IntToStr+0
;seance2.c,153 :: 		Lcd_Cmd(_LCD_CLEAR);
	MOVLW      1
	MOVWF      FARG_Lcd_Cmd_out_char+0
	CALL       _Lcd_Cmd+0
;seance2.c,154 :: 		Lcd_Out(1, 1, mm);
	MOVLW      1
	MOVWF      FARG_Lcd_Out_row+0
	MOVLW      1
	MOVWF      FARG_Lcd_Out_column+0
	MOVF       _mm+0, 0
	MOVWF      FARG_Lcd_Out_text+0
	CALL       _Lcd_Out+0
;seance2.c,155 :: 		}
L_main19:
;seance2.c,156 :: 		};
	GOTO       L_main8
;seance2.c,157 :: 		}
L_end_main:
	GOTO       $+0
; end of _main

_interrupt:
	MOVWF      R15+0
	SWAPF      STATUS+0, 0
	CLRF       STATUS+0
	MOVWF      ___saveSTATUS+0
	MOVF       PCLATH+0, 0
	MOVWF      ___savePCLATH+0
	CLRF       PCLATH+0

;seance2.c,158 :: 		void interrupt(){
;seance2.c,161 :: 		if(INTCON.INTF){
	BTFSS      INTCON+0, 1
	GOTO       L_interrupt20
;seance2.c,162 :: 		m=3;
	MOVLW      3
	MOVWF      _m+0
	MOVLW      0
	MOVWF      _m+1
;seance2.c,163 :: 		INTCON.INTF=0;
	BCF        INTCON+0, 1
;seance2.c,164 :: 		}
L_interrupt20:
;seance2.c,165 :: 		if(INTCON.T0IF){
	BTFSS      INTCON+0, 2
	GOTO       L_interrupt21
;seance2.c,166 :: 		NB--;
	MOVLW      1
	SUBWF      _NB+0, 1
	BTFSS      STATUS+0, 0
	DECF       _NB+1, 1
;seance2.c,167 :: 		if(NB==0){
	MOVLW      0
	XORWF      _NB+1, 0
	BTFSS      STATUS+0, 2
	GOTO       L__interrupt38
	MOVLW      0
	XORWF      _NB+0, 0
L__interrupt38:
	BTFSS      STATUS+0, 2
	GOTO       L_interrupt22
;seance2.c,168 :: 		NB=183;
	MOVLW      183
	MOVWF      _NB+0
	CLRF       _NB+1
;seance2.c,169 :: 		SetHigh(redLED);
	BSF        RC7_bit+0, BitPos(RC7_bit+0)
;seance2.c,170 :: 		INTCON.T0IE=0;
	BCF        INTCON+0, 5
;seance2.c,171 :: 		}
L_interrupt22:
;seance2.c,172 :: 		INTCON.T0IF=0;}
	BCF        INTCON+0, 2
L_interrupt21:
;seance2.c,173 :: 		if(INTCON.RBIF){
	BTFSS      INTCON+0, 0
	GOTO       L_interrupt23
;seance2.c,174 :: 		if(niveau==1){
	BTFSS      RB5_bit+0, BitPos(RB5_bit+0)
	GOTO       L_interrupt24
;seance2.c,175 :: 		m=1;
	MOVLW      1
	MOVWF      _m+0
	MOVLW      0
	MOVWF      _m+1
;seance2.c,177 :: 		INTCON.T0IE=1;
	BSF        INTCON+0, 5
;seance2.c,178 :: 		}
L_interrupt24:
;seance2.c,180 :: 		if(lumin==0){
	BTFSC      RB6_bit+0, BitPos(RB6_bit+0)
	GOTO       L_interrupt25
;seance2.c,181 :: 		m=2;
	MOVLW      2
	MOVWF      _m+0
	MOVLW      0
	MOVWF      _m+1
;seance2.c,182 :: 		}
L_interrupt25:
;seance2.c,183 :: 		INTCON.RBIF=0;
	BCF        INTCON+0, 0
;seance2.c,184 :: 		}}
L_interrupt23:
L_end_interrupt:
L__interrupt37:
	MOVF       ___savePCLATH+0, 0
	MOVWF      PCLATH+0
	SWAPF      ___saveSTATUS+0, 0
	MOVWF      STATUS+0
	SWAPF      R15+0, 1
	SWAPF      R15+0, 0
	RETFIE
; end of _interrupt
